target datalayout = "e-m:e-p270:32:32-p271:32:32-p272:64:64-i64:64-i128:128-f80:128-n8:16:32:64-S128"
target triple = "x86_64-pc-linux-gnu"

; Function Attrs: nounwind uwtable
define dso_local ptr @Py_DecodeLocale(ptr noundef %0, ptr noundef %1) #0 {
  %3 = alloca ptr, align 8
  %4 = alloca ptr, align 8
  %5 = alloca ptr, align 8
  %6 = alloca ptr, align 8
  %7 = alloca i32, align 4
  %8 = alloca i32, align 4
  store ptr %0, ptr %4, align 8, !tbaa !180
  store ptr %1, ptr %5, align 8, !tbaa !189
  call void @llvm.lifetime.start.p0(i64 8, ptr %6) #10
  call void @llvm.lifetime.start.p0(i64 4, ptr %7) #10
  %9 = load ptr, ptr %4, align 8, !tbaa !180
  %10 = load ptr, ptr %5, align 8, !tbaa !189
  %11 = call i32 @_Py_DecodeLocaleEx(ptr noundef %9, ptr noundef %6, ptr noundef %10, ptr noundef null, i32 noundef 0, i32 noundef 2)
  store i32 %11, ptr %7, align 4, !tbaa !4
  %12 = load i32, ptr %7, align 4, !tbaa !4
  %13 = icmp ne i32 %12, 0
  br i1 %13, label %14, label %22

14:                                               ; preds = %2
  %15 = load ptr, ptr %5, align 8, !tbaa !189
  %16 = icmp ne ptr %15, null
  br i1 %16, label %17, label %21

17:                                               ; preds = %14
  %18 = load i32, ptr %7, align 4, !tbaa !4
  %19 = sext i32 %18 to i64
  %20 = load ptr, ptr %5, align 8, !tbaa !189
  store i64 %19, ptr %20, align 8, !tbaa !186
  br label %21

21:                                               ; preds = %17, %14
  store ptr null, ptr %3, align 8
  store i32 1, ptr %8, align 4
  br label %24

22:                                               ; preds = %2
  %23 = load ptr, ptr %6, align 8, !tbaa !177
  store ptr %23, ptr %3, align 8
  store i32 1, ptr %8, align 4
  br label %24

24:                                               ; preds = %22, %21
  call void @llvm.lifetime.end.p0(i64 4, ptr %7) #10
  call void @llvm.lifetime.end.p0(i64 8, ptr %6) #10
  %25 = load ptr, ptr %3, align 8
  ret ptr %25
}

; Function Attrs: nounwind uwtable
define hidden ptr @_Py_wgetcwd(ptr noundef %0, i64 noundef %1) #0 {
  %3 = alloca ptr, align 8
  %4 = alloca ptr, align 8
  %5 = alloca i64, align 8
  %6 = alloca [4096 x i8], align 16
  %7 = alloca ptr, align 8
  %8 = alloca i64, align 8
  %9 = alloca i32, align 4
  store ptr %0, ptr %4, align 8, !tbaa !177
  store i64 %1, ptr %5, align 8, !tbaa !186
  call void @llvm.lifetime.start.p0(i64 4096, ptr %6) #10
  call void @llvm.lifetime.start.p0(i64 8, ptr %7) #10
  call void @llvm.lifetime.start.p0(i64 8, ptr %8) #10
  %10 = getelementptr inbounds [4096 x i8], ptr %6, i64 0, i64 0
  %11 = call ptr @getcwd(ptr noundef %10, i64 noundef 4096) #10
  %12 = icmp eq ptr %11, null
  br i1 %12, label %13, label %14

13:                                               ; preds = %2
  store ptr null, ptr %3, align 8
  store i32 1, ptr %9, align 4
  br label %33

14:                                               ; preds = %2
  %15 = getelementptr inbounds [4096 x i8], ptr %6, i64 0, i64 0
  %16 = call ptr @Py_DecodeLocale(ptr noundef %15, ptr noundef %8)
  store ptr %16, ptr %7, align 8, !tbaa !177
  %17 = load ptr, ptr %7, align 8, !tbaa !177
  %18 = icmp eq ptr %17, null
  br i1 %18, label %19, label %20

19:                                               ; preds = %14
  store ptr null, ptr %3, align 8
  store i32 1, ptr %9, align 4
  br label %33

20:                                               ; preds = %14
  %21 = load i64, ptr %5, align 8, !tbaa !186
  %22 = load i64, ptr %8, align 8, !tbaa !186
  %23 = icmp ule i64 %21, %22
  br i1 %23, label %24, label %26

24:                                               ; preds = %20
  %25 = load ptr, ptr %7, align 8, !tbaa !177
  call void @PyMem_RawFree(ptr noundef %25)
  store ptr null, ptr %3, align 8
  store i32 1, ptr %9, align 4
  br label %33

26:                                               ; preds = %20
  %27 = load ptr, ptr %4, align 8, !tbaa !177
  %28 = load ptr, ptr %7, align 8, !tbaa !177
  %29 = load i64, ptr %5, align 8, !tbaa !186
  %30 = call ptr @wcsncpy(ptr noundef %27, ptr noundef %28, i64 noundef %29) #10
  %31 = load ptr, ptr %7, align 8, !tbaa !177
  call void @PyMem_RawFree(ptr noundef %31)
  %32 = load ptr, ptr %4, align 8, !tbaa !177
  store ptr %32, ptr %3, align 8
  store i32 1, ptr %9, align 4
  br label %33

33:                                               ; preds = %26, %24, %19, %13
  call void @llvm.lifetime.end.p0(i64 8, ptr %8) #10
  call void @llvm.lifetime.end.p0(i64 8, ptr %7) #10
  call void @llvm.lifetime.end.p0(i64 4096, ptr %6) #10
  %34 = load ptr, ptr %3, align 8
  ret ptr %34
}