; Function Attrs: nounwind uwtable
define hidden noundef ptr @_Py_wgetcwd(ptr noundef %0, i64 noundef %1) local_unnamed_addr #0 {
  %3 = alloca ptr, align 8
  %4 = alloca [4096 x i8], align 16
  %5 = alloca i64, align 8
  call void @llvm.lifetime.start.p0(i64 4096, ptr nonnull %4) #17
  call void @llvm.lifetime.start.p0(i64 8, ptr nonnull %5) #17
  %6 = call ptr @getcwd(ptr noundef nonnull %4, i64 noundef 4096) #17
  %7 = icmp eq ptr %6, null
  br i1 %7, label %17, label %8

8:                                                ; preds = %2
  call void @llvm.lifetime.start.p0(i64 8, ptr nonnull %3) #17
  %9 = call i32 @_Py_DecodeLocaleEx(ptr noundef nonnull %4, ptr noundef nonnull %3, ptr noundef nonnull %5, ptr noundef null, i32 noundef 0, i32 noundef 2)
  %.not.i = icmp eq i32 %9, 0
  br i1 %.not.i, label %Py_DecodeLocale.exit, label %Py_DecodeLocale.exit.thread

Py_DecodeLocale.exit.thread:                      ; preds = %8
  call void @llvm.lifetime.end.p0(i64 8, ptr nonnull %3) #17
  br label %17

Py_DecodeLocale.exit:                             ; preds = %8
  %10 = load ptr, ptr %3, align 8, !tbaa !184
  call void @llvm.lifetime.end.p0(i64 8, ptr nonnull %3) #17
  %11 = icmp eq ptr %10, null
  br i1 %11, label %17, label %12

12:                                               ; preds = %Py_DecodeLocale.exit
  %13 = load i64, ptr %5, align 8, !tbaa !183
  %.not = icmp ugt i64 %1, %13
  br i1 %.not, label %15, label %14

14:                                               ; preds = %12
  call void @PyMem_RawFree(ptr noundef nonnull %10) #17
  br label %17

15:                                               ; preds = %12
  %16 = call ptr @wcsncpy(ptr noundef %0, ptr noundef nonnull %10, i64 noundef %1) #17
  call void @PyMem_RawFree(ptr noundef nonnull %10) #17
  br label %17

17:                                               ; preds = %Py_DecodeLocale.exit.thread, %Py_DecodeLocale.exit, %2, %15, %14
  %.0 = phi ptr [ null, %14 ], [ %0, %15 ], [ null, %2 ], [ null, %Py_DecodeLocale.exit ], [ null, %Py_DecodeLocale.exit.thread ]
  call void @llvm.lifetime.end.p0(i64 8, ptr nonnull %5) #17
  call void @llvm.lifetime.end.p0(i64 4096, ptr nonnull %4) #17
  ret ptr %.0
}